; ModuleID = '7/112.c'
source_filename = "7/112.c"
target datalayout = "e-m:e-p270:32:32-p271:32:32-p272:64:64-i64:64-f80:128-n8:16:32:64-S128"
target triple = "x86_64-pc-linux-gnu"

@.str = private unnamed_addr constant [4 x i8] c"%s\0A\00", align 1

; Function Attrs: noinline nounwind uwtable
define dso_local i32 @main() #0 {
  %1 = alloca i32, align 4
  %2 = alloca [256 x i8], align 16
  %3 = alloca [256 x i8], align 16
  %4 = alloca [256 x i8], align 16
  %5 = alloca [512 x i8], align 16
  %6 = alloca i8*, align 8
  %7 = alloca i8*, align 8
  store i32 0, i32* %1, align 4
  %8 = bitcast [512 x i8]* %5 to i8*
  call void @llvm.memset.p0i8.i64(i8* align 16 %8, i8 0, i64 512, i1 false)
  %9 = getelementptr inbounds [256 x i8], [256 x i8]* %2, i64 0, i64 0
  %10 = call i32 (i8*, ...) bitcast (i32 (...)* @gets to i32 (i8*, ...)*)(i8* %9)
  %11 = getelementptr inbounds [256 x i8], [256 x i8]* %3, i64 0, i64 0
  %12 = call i32 (i8*, ...) bitcast (i32 (...)* @gets to i32 (i8*, ...)*)(i8* %11)
  %13 = getelementptr inbounds [256 x i8], [256 x i8]* %4, i64 0, i64 0
  %14 = call i32 (i8*, ...) bitcast (i32 (...)* @gets to i32 (i8*, ...)*)(i8* %13)
  %15 = getelementptr inbounds [256 x i8], [256 x i8]* %2, i64 0, i64 0
  store i8* %15, i8** %6, align 8
  store i8* null, i8** %7, align 8
  %16 = load i8*, i8** %6, align 8
  %17 = getelementptr inbounds [256 x i8], [256 x i8]* %3, i64 0, i64 0
  %18 = call i8* @strstr(i8* %16, i8* %17) #5
  store i8* %18, i8** %7, align 8
  %19 = icmp ne i8* %18, null
  br i1 %19, label %20, label %36

20:                                               ; preds = %0
  %21 = getelementptr inbounds [512 x i8], [512 x i8]* %5, i64 0, i64 0
  %22 = load i8*, i8** %6, align 8
  %23 = load i8*, i8** %7, align 8
  %24 = load i8*, i8** %6, align 8
  %25 = ptrtoint i8* %23 to i64
  %26 = ptrtoint i8* %24 to i64
  %27 = sub i64 %25, %26
  %28 = call i8* @strncat(i8* %21, i8* %22, i64 %27) #6
  %29 = getelementptr inbounds [512 x i8], [512 x i8]* %5, i64 0, i64 0
  %30 = getelementptr inbounds [256 x i8], [256 x i8]* %4, i64 0, i64 0
  %31 = call i8* @strcat(i8* %29, i8* %30) #6
  %32 = load i8*, i8** %7, align 8
  %33 = getelementptr inbounds [256 x i8], [256 x i8]* %3, i64 0, i64 0
  %34 = call i64 @strlen(i8* %33) #5
  %35 = getelementptr inbounds i8, i8* %32, i64 %34
  store i8* %35, i8** %6, align 8
  br label %36

36:                                               ; preds = %20, %0
  %37 = getelementptr inbounds [512 x i8], [512 x i8]* %5, i64 0, i64 0
  %38 = load i8*, i8** %6, align 8
  %39 = call i8* @strcat(i8* %37, i8* %38) #6
  %40 = getelementptr inbounds [512 x i8], [512 x i8]* %5, i64 0, i64 0
  %41 = call i32 (i8*, ...) @printf(i8* getelementptr inbounds ([4 x i8], [4 x i8]* @.str, i64 0, i64 0), i8* %40)
  ret i32 0
}

; Function Attrs: argmemonly nounwind willreturn
declare void @llvm.memset.p0i8.i64(i8* nocapture writeonly, i8, i64, i1 immarg) #1

declare dso_local i32 @gets(...) #2

; Function Attrs: nounwind readonly
declare dso_local i8* @strstr(i8*, i8*) #3

; Function Attrs: nounwind
declare dso_local i8* @strncat(i8*, i8*, i64) #4

; Function Attrs: nounwind
declare dso_local i8* @strcat(i8*, i8*) #4

; Function Attrs: nounwind readonly
declare dso_local i64 @strlen(i8*) #3

declare dso_local i32 @printf(i8*, ...) #2


!llvm.module.flags = !{!0}
!llvm.ident = !{!1}

!0 = !{i32 1, !"wchar_size", i32 4}
!1 = !{!"clang version 10.0.0-4ubuntu1 "}
